; Function Attrs: mustprogress nounwind uwtable
define internal fastcc noundef ptr @_ZNK12_GLOBAL__N_17WidenIV15getSCEVByOpCodeEPKN4llvm4SCEVES4_j(ptr %.32.val, ptr noundef %0, ptr noundef %1, i32 noundef %2) unnamed_addr #1 align 2 {
  %4 = alloca %"class.llvm::SmallVector.228", align 8
  %5 = alloca [2 x ptr], align 8
  %6 = alloca %"class.llvm::SmallVector.228", align 8
  %7 = alloca [2 x ptr], align 8
  switch i32 %2, label %30 [
    i32 13, label %8
    i32 15, label %17
    i32 17, label %19
    i32 19, label %28
  ]

8:                                                ; preds = %3
  call void @llvm.lifetime.start.p0(i64 32, ptr nonnull %6)
  call void @llvm.lifetime.start.p0(i64 16, ptr nonnull %7)
  store ptr %0, ptr %7, align 8
  %9 = getelementptr inbounds i8, ptr %7, i64 8
  store ptr %1, ptr %9, align 8
  %10 = getelementptr inbounds i8, ptr %6, i64 16
  call void @_ZN4llvm15SmallVectorBaseIjEC2EPvm(ptr noundef nonnull align 8 dereferenceable(16) %6, ptr noundef nonnull %10, i64 noundef 2) #14
  %11 = getelementptr inbounds i8, ptr %7, i64 16
  call void @_ZN4llvm15SmallVectorImplIPKNS_4SCEVEE6appendIPKS3_vEEvT_S8_(ptr noundef nonnull align 8 dereferenceable(16) %6, ptr noundef nonnull %7, ptr noundef nonnull %11)
  %12 = call noundef ptr @_ZN4llvm15ScalarEvolution10getAddExprERNS_15SmallVectorImplIPKNS_4SCEVEEENS2_11NoWrapFlagsEj(ptr noundef nonnull align 8 dereferenceable(1392) %.32.val, ptr noundef nonnull align 8 dereferenceable(16) %6, i32 noundef 0, i32 noundef 0) #14
  %13 = call noundef i64 @_ZNK4llvm15SmallVectorBaseIjE4sizeEv(ptr noundef nonnull align 8 dereferenceable(16) %6) #14
  %14 = load ptr, ptr %6, align 8
  %15 = icmp eq ptr %14, %10
  br i1 %15, label %_ZN4llvm15ScalarEvolution10getAddExprEPKNS_4SCEVES3_NS1_11NoWrapFlagsEj.exit, label %16

16:                                               ; preds = %8
  call void @free(ptr noundef %14) #14
  br label %_ZN4llvm15ScalarEvolution10getAddExprEPKNS_4SCEVES3_NS1_11NoWrapFlagsEj.exit

_ZN4llvm15ScalarEvolution10getAddExprEPKNS_4SCEVES3_NS1_11NoWrapFlagsEj.exit: ; preds = %8, %16
  call void @llvm.lifetime.end.p0(i64 32, ptr nonnull %6)
  call void @llvm.lifetime.end.p0(i64 16, ptr nonnull %7)
  br label %31

17:                                               ; preds = %3
  %18 = tail call noundef ptr @_ZN4llvm15ScalarEvolution12getMinusSCEVEPKNS_4SCEVES3_NS1_11NoWrapFlagsEj(ptr noundef nonnull align 8 dereferenceable(1392) %.32.val, ptr noundef %0, ptr noundef %1, i32 noundef 0, i32 noundef 0) #14
  br label %31

19:                                               ; preds = %3
  call void @llvm.lifetime.start.p0(i64 32, ptr nonnull %4)
  call void @llvm.lifetime.start.p0(i64 16, ptr nonnull %5)
  store ptr %0, ptr %5, align 8
  %20 = getelementptr inbounds i8, ptr %5, i64 8
  store ptr %1, ptr %20, align 8
  %21 = getelementptr inbounds i8, ptr %4, i64 16
  call void @_ZN4llvm15SmallVectorBaseIjEC2EPvm(ptr noundef nonnull align 8 dereferenceable(16) %4, ptr noundef nonnull %21, i64 noundef 2) #14
  %22 = getelementptr inbounds i8, ptr %5, i64 16
  call void @_ZN4llvm15SmallVectorImplIPKNS_4SCEVEE6appendIPKS3_vEEvT_S8_(ptr noundef nonnull align 8 dereferenceable(16) %4, ptr noundef nonnull %5, ptr noundef nonnull %22)
  %23 = call noundef ptr @_ZN4llvm15ScalarEvolution10getMulExprERNS_15SmallVectorImplIPKNS_4SCEVEEENS2_11NoWrapFlagsEj(ptr noundef nonnull align 8 dereferenceable(1392) %.32.val, ptr noundef nonnull align 8 dereferenceable(16) %4, i32 noundef 0, i32 noundef 0) #14
  %24 = call noundef i64 @_ZNK4llvm15SmallVectorBaseIjE4sizeEv(ptr noundef nonnull align 8 dereferenceable(16) %4) #14
  %25 = load ptr, ptr %4, align 8
  %26 = icmp eq ptr %25, %21
  br i1 %26, label %_ZN4llvm15ScalarEvolution10getMulExprEPKNS_4SCEVES3_NS1_11NoWrapFlagsEj.exit, label %27

27:                                               ; preds = %19
  call void @free(ptr noundef %25) #14
  br label %_ZN4llvm15ScalarEvolution10getMulExprEPKNS_4SCEVES3_NS1_11NoWrapFlagsEj.exit

_ZN4llvm15ScalarEvolution10getMulExprEPKNS_4SCEVES3_NS1_11NoWrapFlagsEj.exit: ; preds = %19, %27
  call void @llvm.lifetime.end.p0(i64 32, ptr nonnull %4)
  call void @llvm.lifetime.end.p0(i64 16, ptr nonnull %5)
  br label %31

28:                                               ; preds = %3
  %29 = tail call noundef ptr @_ZN4llvm15ScalarEvolution11getUDivExprEPKNS_4SCEVES3_(ptr noundef nonnull align 8 dereferenceable(1392) %.32.val, ptr noundef %0, ptr noundef %1) #14
  br label %31

30:                                               ; preds = %3
  unreachable

31:                                               ; preds = %28, %_ZN4llvm15ScalarEvolution10getMulExprEPKNS_4SCEVES3_NS1_11NoWrapFlagsEj.exit, %17, %_ZN4llvm15ScalarEvolution10getAddExprEPKNS_4SCEVES3_NS1_11NoWrapFlagsEj.exit
  %.0 = phi ptr [ %29, %28 ], [ %23, %_ZN4llvm15ScalarEvolution10getMulExprEPKNS_4SCEVES3_NS1_11NoWrapFlagsEj.exit ], [ %18, %17 ], [ %12, %_ZN4llvm15ScalarEvolution10getAddExprEPKNS_4SCEVES3_NS1_11NoWrapFlagsEj.exit ]
  ret ptr %.0
}